; Function Attrs: mustprogress nounwind uwtable
define void @_ZN4pkpy3StrD2Ev(ptr noundef nonnull readonly align 8 dereferenceable(32) %0) unnamed_addr #4 align 2 personality ptr @__gxx_personality_v0 {
  %2 = getelementptr inbounds i8, ptr %0, i64 8
  %3 = load ptr, ptr %2, align 8
  %4 = getelementptr inbounds i8, ptr %0, i64 16
  %5 = icmp eq ptr %3, %4
  br i1 %5, label %7, label %6

6:                                                ; preds = %1
  tail call void @_ZN4pkpy14pool64_deallocEPv(ptr noundef %3) #23
  br label %7

7:                                                ; preds = %6, %1
  ret void
}